target datalayout = "e-m:e-p270:32:32-p271:32:32-p272:64:64-i64:64-i128:128-f80:128-n8:16:32:64-S128"
target triple = "x86_64-pc-linux-gnu"

%"struct.std::atomic.3" = type { %"struct.std::__atomic_base.4" }
%"struct.std::__atomic_base.4" = type { i64 }
%"class.std::chrono::duration" = type { i64 }
%"struct.folly::detail::EventBasePoller::Stats" = type { i32, i32, i64, i64, %"class.std::chrono::duration", %"class.std::chrono::duration", %"class.std::chrono::duration", %"class.std::chrono::duration", %"class.std::chrono::duration", %"class.std::chrono::duration" }
%"class.folly::detail::EventBasePoller" = type { ptr, %"struct.folly::Synchronized" }
%"struct.folly::Synchronized" = type <{ %"struct.folly::detail::EventBasePoller::Stats", %"class.folly::SharedMutexImpl", [4 x i8] }>
%"class.folly::SharedMutexImpl" = type { %"struct.std::atomic" }
%"struct.std::atomic" = type { %"struct.std::__atomic_base" }
%"struct.std::__atomic_base" = type { i32 }
%"class.folly::detail::(anonymous namespace)::EventBasePollerEpoll" = type { %"class.folly::detail::(anonymous namespace)::EventBasePollerImpl", i64, i32, %"class.std::vector.41" }
%"class.folly::detail::(anonymous namespace)::EventBasePollerImpl" = type { %"class.folly::detail::EventBasePoller", i8, %"class.std::vector", %"struct.std::atomic.3", %"struct.folly::detail::(anonymous namespace)::EventBasePollerImpl::Event", %"class.std::vector.19", %"class.std::unique_ptr.24", %"class.std::vector.32", %"struct.std::atomic.37", %"class.folly::detail::(anonymous namespace)::Queue" }
%"class.std::vector" = type { %"struct.std::_Vector_base" }
%"struct.std::_Vector_base" = type { %"struct.std::_Vector_base<folly::detail::(anonymous namespace)::EventBasePollerImpl::Event *, std::allocator<folly::detail::(anonymous namespace)::EventBasePollerImpl::Event *>>::_Vector_impl" }
%"struct.std::_Vector_base<folly::detail::(anonymous namespace)::EventBasePollerImpl::Event *, std::allocator<folly::detail::(anonymous namespace)::EventBasePollerImpl::Event *>>::_Vector_impl" = type { %"struct.std::_Vector_base<folly::detail::(anonymous namespace)::EventBasePollerImpl::Event *, std::allocator<folly::detail::(anonymous namespace)::EventBasePollerImpl::Event *>>::_Vector_impl_data" }
%"struct.std::_Vector_base<folly::detail::(anonymous namespace)::EventBasePollerImpl::Event *, std::allocator<folly::detail::(anonymous namespace)::EventBasePollerImpl::Event *>>::_Vector_impl_data" = type { ptr, ptr, ptr }
%"struct.folly::detail::(anonymous namespace)::EventBasePollerImpl::Event" = type { %"class.folly::detail::EventBasePoller::Handle", ptr, i32, i8, ptr, i8, %"class.folly::Baton" }
%"class.folly::detail::EventBasePoller::Handle" = type { ptr, ptr }
%"class.folly::Baton" = type { %"struct.std::atomic" }
%"class.std::vector.19" = type { %"struct.std::_Vector_base.20" }
%"struct.std::_Vector_base.20" = type { %"struct.std::_Vector_base<std::unique_ptr<folly::detail::(anonymous namespace)::EventBasePollerImpl::Event>, std::allocator<std::unique_ptr<folly::detail::(anonymous namespace)::EventBasePollerImpl::Event>>>::_Vector_impl" }
%"struct.std::_Vector_base<std::unique_ptr<folly::detail::(anonymous namespace)::EventBasePollerImpl::Event>, std::allocator<std::unique_ptr<folly::detail::(anonymous namespace)::EventBasePollerImpl::Event>>>::_Vector_impl" = type { %"struct.std::_Vector_base<std::unique_ptr<folly::detail::(anonymous namespace)::EventBasePollerImpl::Event>, std::allocator<std::unique_ptr<folly::detail::(anonymous namespace)::EventBasePollerImpl::Event>>>::_Vector_impl_data" }
%"struct.std::_Vector_base<std::unique_ptr<folly::detail::(anonymous namespace)::EventBasePollerImpl::Event>, std::allocator<std::unique_ptr<folly::detail::(anonymous namespace)::EventBasePollerImpl::Event>>>::_Vector_impl_data" = type { ptr, ptr, ptr }
%"class.std::unique_ptr.24" = type { %"struct.std::__uniq_ptr_data.25" }
%"struct.std::__uniq_ptr_data.25" = type { %"class.std::__uniq_ptr_impl.26" }
%"class.std::__uniq_ptr_impl.26" = type { %"class.std::tuple.27" }
%"class.std::tuple.27" = type { %"struct.std::_Tuple_impl.28" }
%"struct.std::_Tuple_impl.28" = type { %"struct.std::_Head_base.31" }
%"struct.std::_Head_base.31" = type { ptr }
%"class.std::vector.32" = type { %"struct.std::_Vector_base.33" }
%"struct.std::_Vector_base.33" = type { %"struct.std::_Vector_base<folly::detail::EventBasePoller::Handle *, std::allocator<folly::detail::EventBasePoller::Handle *>>::_Vector_impl" }
%"struct.std::_Vector_base<folly::detail::EventBasePoller::Handle *, std::allocator<folly::detail::EventBasePoller::Handle *>>::_Vector_impl" = type { %"struct.std::_Vector_base<folly::detail::EventBasePoller::Handle *, std::allocator<folly::detail::EventBasePoller::Handle *>>::_Vector_impl_data" }
%"struct.std::_Vector_base<folly::detail::EventBasePoller::Handle *, std::allocator<folly::detail::EventBasePoller::Handle *>>::_Vector_impl_data" = type { ptr, ptr, ptr }
%"struct.std::atomic.37" = type { %"struct.std::__atomic_base.38" }
%"struct.std::__atomic_base.38" = type { i8 }
%"class.folly::detail::(anonymous namespace)::Queue" = type { %"struct.std::atomic.39" }
%"struct.std::atomic.39" = type { %"struct.std::__atomic_base.40" }
%"struct.std::__atomic_base.40" = type { ptr }
%"class.std::vector.41" = type { %"struct.std::_Vector_base.42" }
%"struct.std::_Vector_base.42" = type { %"struct.std::_Vector_base<epoll_event, std::allocator<epoll_event>>::_Vector_impl" }
%"struct.std::_Vector_base<epoll_event, std::allocator<epoll_event>>::_Vector_impl" = type { %"struct.std::_Vector_base<epoll_event, std::allocator<epoll_event>>::_Vector_impl_data" }
%"struct.std::_Vector_base<epoll_event, std::allocator<epoll_event>>::_Vector_impl_data" = type { ptr, ptr, ptr }
%"class.google::LogMessageVoidify" = type { i8 }
%"class.google::ErrnoLogMessage" = type { %"class.google::LogMessage" }
%"class.google::LogMessage" = type { ptr, ptr }
%struct.epoll_event = type <{ i32, %union.epoll_data }>
%union.epoll_data = type { ptr }
%"class.std::ios_base" = type { ptr, i64, i64, i32, i32, i32, ptr, %"struct.std::ios_base::_Words", [8 x %"struct.std::ios_base::_Words"], i32, ptr, %"class.std::locale" }
%"struct.std::ios_base::_Words" = type { ptr, i64 }
%"class.std::locale" = type { ptr }

@.str.5 = private unnamed_addr constant [124 x i8] c"generated/home/dtcxzyw/WorkSpace/Projects/compilers/llvm-opt-benchmark/bench/folly/folly/folly/io/async/EventBasePoller.cpp\00", align 1
@.str.42 = private unnamed_addr constant [24 x i8] c"Check failed: ret == 0 \00", align 1

; Function Attrs: inlinehint mustprogress nounwind uwtable
define linkonce_odr noundef i32 @_ZStorSt12_Ios_IostateS_(i32 noundef %0, i32 noundef %1) #9 comdat {
  %3 = alloca i32, align 4
  %4 = alloca i32, align 4
  store i32 %0, ptr %3, align 4, !tbaa !278
  store i32 %1, ptr %4, align 4, !tbaa !278
  %5 = load i32, ptr %3, align 4, !tbaa !278
  %6 = load i32, ptr %4, align 4, !tbaa !278
  %7 = or i32 %5, %6
  ret i32 %7
}

; Function Attrs: mustprogress nounwind uwtable
define available_externally noundef i32 @_ZNKSt9basic_iosIcSt11char_traitsIcEE7rdstateEv(ptr noundef nonnull align 8 dereferenceable(264) %0) #0 align 2 {
  %2 = alloca ptr, align 8
  store ptr %0, ptr %2, align 8, !tbaa !276
  %3 = load ptr, ptr %2, align 8
  %4 = getelementptr inbounds nuw %"class.std::ios_base", ptr %3, i32 0, i32 5
  %5 = load i32, ptr %4, align 8, !tbaa !280
  ret i32 %5
}

; Function Attrs: mustprogress nounwind uwtable
define linkonce_odr noundef i64 @_ZNSt11char_traitsIcE6lengthEPKc(ptr noundef %0) #0 comdat align 2 {
  %2 = alloca ptr, align 8
  store ptr %0, ptr %2, align 8, !tbaa !18
  %3 = load ptr, ptr %2, align 8, !tbaa !18
  %4 = call i64 @strlen(ptr noundef %3) #13
  ret i64 %4
}

; Function Attrs: mustprogress uwtable
define available_externally void @_ZNSt9basic_iosIcSt11char_traitsIcEE8setstateESt12_Ios_Iostate(ptr noundef nonnull align 8 dereferenceable(264) %0, i32 noundef %1) #4 align 2 {
  %3 = alloca ptr, align 8
  %4 = alloca i32, align 4
  store ptr %0, ptr %3, align 8, !tbaa !276
  store i32 %1, ptr %4, align 4, !tbaa !278
  %5 = load ptr, ptr %3, align 8
  %6 = call noundef i32 @_ZNKSt9basic_iosIcSt11char_traitsIcEE7rdstateEv(ptr noundef nonnull align 8 dereferenceable(264) %5)
  %7 = load i32, ptr %4, align 4, !tbaa !278
  %8 = call noundef i32 @_ZStorSt12_Ios_IostateS_(i32 noundef %6, i32 noundef %7)
  call void @_ZNSt9basic_iosIcSt11char_traitsIcEE5clearESt12_Ios_Iostate(ptr noundef nonnull align 8 dereferenceable(264) %5, i32 noundef %8)
  ret void
}

; Function Attrs: mustprogress nounwind uwtable
define linkonce_odr void @_ZN6google17LogMessageVoidifyanERSo(ptr noundef nonnull align 1 dereferenceable(1) %0, ptr noundef nonnull align 8 dereferenceable(8) %1) #0 comdat align 2 {
  %3 = alloca ptr, align 8
  %4 = alloca ptr, align 8
  store ptr %0, ptr %3, align 8, !tbaa !191
  store ptr %1, ptr %4, align 8, !tbaa !193
  ret void
}

; Function Attrs: inlinehint mustprogress uwtable
define available_externally noundef nonnull align 8 dereferenceable(8) ptr @_ZStlsISt11char_traitsIcEERSt13basic_ostreamIcT_ES5_PKc(ptr noundef nonnull align 8 dereferenceable(8) %0, ptr noundef %1) #2 {
  %3 = alloca ptr, align 8
  %4 = alloca ptr, align 8
  store ptr %0, ptr %3, align 8, !tbaa !193
  store ptr %1, ptr %4, align 8, !tbaa !18
  %5 = load ptr, ptr %4, align 8, !tbaa !18
  %6 = icmp ne ptr %5, null
  br i1 %6, label %13, label %7

7:                                                ; preds = %2
  %8 = load ptr, ptr %3, align 8, !tbaa !193
  %9 = load ptr, ptr %8, align 8, !tbaa !66
  %10 = getelementptr i8, ptr %9, i64 -24
  %11 = load i64, ptr %10, align 8
  %12 = getelementptr inbounds i8, ptr %8, i64 %11
  call void @_ZNSt9basic_iosIcSt11char_traitsIcEE8setstateESt12_Ios_Iostate(ptr noundef nonnull align 8 dereferenceable(264) %12, i32 noundef 1)
  br label %19

13:                                               ; preds = %2
  %14 = load ptr, ptr %3, align 8, !tbaa !193
  %15 = load ptr, ptr %4, align 8, !tbaa !18
  %16 = load ptr, ptr %4, align 8, !tbaa !18
  %17 = call noundef i64 @_ZNSt11char_traitsIcE6lengthEPKc(ptr noundef %16)
  %18 = call noundef nonnull align 8 dereferenceable(8) ptr @_ZSt16__ostream_insertIcSt11char_traitsIcEERSt13basic_ostreamIT_T0_ES6_PKS3_l(ptr noundef nonnull align 8 dereferenceable(8) %14, ptr noundef %15, i64 noundef %17)
  br label %19

19:                                               ; preds = %13, %7
  %20 = load ptr, ptr %3, align 8, !tbaa !193
  ret ptr %20
}

; Function Attrs: mustprogress nounwind uwtable
define linkonce_odr void @_ZN6google17LogMessageVoidifyC2Ev(ptr noundef nonnull align 1 dereferenceable(1) %0) unnamed_addr #0 comdat align 2 {
  %2 = alloca ptr, align 8
  store ptr %0, ptr %2, align 8, !tbaa !191
  ret void
}

; Function Attrs: mustprogress nounwind uwtable
define internal noundef zeroext i1 @_ZNK5folly6detail12_GLOBAL__N_119EventBasePollerImpl5Event16isNotificationFdEv(ptr noundef nonnull align 8 dereferenceable(48) %0) #0 align 2 {
  %2 = alloca ptr, align 8
  store ptr %0, ptr %2, align 8, !tbaa !169
  %3 = load ptr, ptr %2, align 8
  %4 = getelementptr inbounds nuw %"struct.folly::detail::(anonymous namespace)::EventBasePollerImpl::Event", ptr %3, i32 0, i32 1
  %5 = load ptr, ptr %4, align 8, !tbaa !178
  %6 = icmp eq ptr %5, null
  ret i1 %6
}

; Function Attrs: mustprogress uwtable
define internal void @_ZN5folly6detail12_GLOBAL__N_120EventBasePollerEpoll8addEventEPNS1_19EventBasePollerImpl5EventE(ptr noundef nonnull align 8 dereferenceable(288) %0, ptr noundef %1) unnamed_addr #4 align 2 personality ptr @__gxx_personality_v0 {
  %3 = alloca ptr, align 8
  %4 = alloca ptr, align 8
  %5 = alloca %struct.epoll_event, align 1
  %6 = alloca i32, align 4
  %7 = alloca i32, align 4
  %8 = alloca %"class.google::LogMessageVoidify", align 1
  %9 = alloca %"class.google::ErrnoLogMessage", align 8
  %10 = alloca i1, align 1
  %11 = alloca { i64, i64 }, align 8
  %12 = alloca i1, align 1
  %13 = alloca ptr, align 8
  %14 = alloca i32, align 4
  store ptr %0, ptr %3, align 8, !tbaa !95
  store ptr %1, ptr %4, align 8, !tbaa !169
  %15 = load ptr, ptr %3, align 8
  %16 = load ptr, ptr %4, align 8, !tbaa !169
  %17 = call noundef zeroext i1 @_ZNK5folly6detail12_GLOBAL__N_119EventBasePollerImpl5Event16isNotificationFdEv(ptr noundef nonnull align 8 dereferenceable(48) %16)
  br i1 %17, label %18, label %24

18:                                               ; preds = %2
  %19 = load ptr, ptr %4, align 8, !tbaa !169
  %20 = getelementptr inbounds nuw %"struct.folly::detail::(anonymous namespace)::EventBasePollerImpl::Event", ptr %19, i32 0, i32 3
  %21 = load i8, ptr %20, align 4, !tbaa !170, !range !101, !noundef !102
  %22 = trunc i8 %21 to i1
  br i1 %22, label %23, label %24

23:                                               ; preds = %18
  br label %80

24:                                               ; preds = %18, %2
  call void @llvm.lifetime.start.p0(i64 12, ptr %5) #13
  call void @llvm.memset.p0.i64(ptr align 1 %5, i8 0, i64 12, i1 false)
  %25 = load ptr, ptr %4, align 8, !tbaa !169
  %26 = getelementptr inbounds nuw %struct.epoll_event, ptr %5, i32 0, i32 1
  store ptr %25, ptr %26, align 1, !tbaa !34
  %27 = getelementptr inbounds nuw %struct.epoll_event, ptr %5, i32 0, i32 0
  store i32 1, ptr %27, align 1, !tbaa !171
  call void @llvm.lifetime.start.p0(i64 4, ptr %6) #13
  store i32 1, ptr %6, align 4, !tbaa !52
  %28 = load ptr, ptr %4, align 8, !tbaa !169
  %29 = call noundef zeroext i1 @_ZNK5folly6detail12_GLOBAL__N_119EventBasePollerImpl5Event16isNotificationFdEv(ptr noundef nonnull align 8 dereferenceable(48) %28)
  br i1 %29, label %47, label %30

30:                                               ; preds = %24
  %31 = getelementptr inbounds nuw %struct.epoll_event, ptr %5, i32 0, i32 0
  %32 = load i32, ptr %31, align 1, !tbaa !171
  %33 = or i32 %32, 1073741824
  store i32 %33, ptr %31, align 1, !tbaa !171
  %34 = load ptr, ptr %4, align 8, !tbaa !169
  %35 = getelementptr inbounds nuw %"struct.folly::detail::(anonymous namespace)::EventBasePollerImpl::Event", ptr %34, i32 0, i32 3
  %36 = load i8, ptr %35, align 4, !tbaa !170, !range !101, !noundef !102
  %37 = trunc i8 %36 to i1
  %38 = xor i1 %37, true
  %39 = zext i1 %38 to i64
  %40 = call i64 @llvm.expect.i64(i64 %39, i64 0)
  %41 = icmp ne i64 %40, 0
  br i1 %41, label %42, label %45

42:                                               ; preds = %30
  %43 = load ptr, ptr %4, align 8, !tbaa !169
  %44 = getelementptr inbounds nuw %"struct.folly::detail::(anonymous namespace)::EventBasePollerImpl::Event", ptr %43, i32 0, i32 3
  store i8 1, ptr %44, align 4, !tbaa !170
  br label %46

45:                                               ; preds = %30
  store i32 3, ptr %6, align 4, !tbaa !52
  br label %46

46:                                               ; preds = %45, %42
  br label %53

47:                                               ; preds = %24
  %48 = getelementptr inbounds nuw %struct.epoll_event, ptr %5, i32 0, i32 0
  %49 = load i32, ptr %48, align 1, !tbaa !171
  %50 = or i32 %49, -2147483648
  store i32 %50, ptr %48, align 1, !tbaa !171
  %51 = load ptr, ptr %4, align 8, !tbaa !169
  %52 = getelementptr inbounds nuw %"struct.folly::detail::(anonymous namespace)::EventBasePollerImpl::Event", ptr %51, i32 0, i32 3
  store i8 1, ptr %52, align 4, !tbaa !170
  br label %53

53:                                               ; preds = %47, %46
  call void @llvm.lifetime.start.p0(i64 4, ptr %7) #13
  %54 = getelementptr inbounds nuw %"class.folly::detail::(anonymous namespace)::EventBasePollerEpoll", ptr %15, i32 0, i32 2
  %55 = load i32, ptr %54, align 8, !tbaa !150
  %56 = load i32, ptr %6, align 4, !tbaa !52
  %57 = load ptr, ptr %4, align 8, !tbaa !169
  %58 = getelementptr inbounds nuw %"struct.folly::detail::(anonymous namespace)::EventBasePollerImpl::Event", ptr %57, i32 0, i32 2
  %59 = load i32, ptr %58, align 8, !tbaa !173
  %60 = call i32 @epoll_ctl(i32 noundef %55, i32 noundef %56, i32 noundef %59, ptr noundef %5) #13
  store i32 %60, ptr %7, align 4, !tbaa !52
  %61 = load i32, ptr %7, align 4, !tbaa !52
  %62 = icmp eq i32 %61, 0
  %63 = xor i1 %62, true
  %64 = zext i1 %63 to i64
  %65 = call i64 @llvm.expect.i64(i64 %64, i64 0)
  %66 = icmp ne i64 %65, 0
  call void @llvm.lifetime.start.p0(i64 1, ptr %8) #13
  store i1 false, ptr %10, align 1
  store i1 false, ptr %12, align 1
  br i1 %66, label %68, label %67

67:                                               ; preds = %53
  br label %73

68:                                               ; preds = %53
  call void @_ZN6google17LogMessageVoidifyC2Ev(ptr noundef nonnull align 1 dereferenceable(1) %8)
  call void @llvm.lifetime.start.p0(i64 16, ptr %9) #13
  store i1 true, ptr %10, align 1
  call void @llvm.lifetime.start.p0(i64 16, ptr %11) #13
  store { i64, i64 } { i64 ptrtoint (ptr @_ZN6google10LogMessage9SendToLogEv to i64), i64 0 }, ptr %11, align 8, !tbaa !34
  call void @_ZN6google15ErrnoLogMessageC1EPKciiiMNS_10LogMessageEFvvE(ptr noundef nonnull align 8 dereferenceable(16) %9, ptr noundef @.str.5, i32 noundef 424, i32 noundef 3, i32 noundef 0, ptr noundef byval({ i64, i64 }) align 8 %11)
  call void @llvm.lifetime.end.p0(i64 16, ptr %11) #13
  store i1 true, ptr %12, align 1
  %69 = invoke noundef nonnull align 8 dereferenceable(8) ptr @_ZN6google10LogMessage6streamEv(ptr noundef nonnull align 8 dereferenceable(16) %9)
          to label %70 unwind label %81

70:                                               ; preds = %68
  %71 = invoke noundef nonnull align 8 dereferenceable(8) ptr @_ZStlsISt11char_traitsIcEERSt13basic_ostreamIcT_ES5_PKc(ptr noundef nonnull align 8 dereferenceable(8) %69, ptr noundef @.str.42)
          to label %72 unwind label %81

72:                                               ; preds = %70
  call void @_ZN6google17LogMessageVoidifyanERSo(ptr noundef nonnull align 1 dereferenceable(1) %8, ptr noundef nonnull align 8 dereferenceable(8) %71)
  br label %73

73:                                               ; preds = %72, %67
  %74 = load i1, ptr %12, align 1
  br i1 %74, label %75, label %76

75:                                               ; preds = %73
  call void @_ZN6google15ErrnoLogMessageD1Ev(ptr noundef nonnull align 8 dereferenceable(16) %9) #13
  br label %76

76:                                               ; preds = %75, %73
  %77 = load i1, ptr %10, align 1
  br i1 %77, label %78, label %79

78:                                               ; preds = %76
  call void @llvm.lifetime.end.p0(i64 16, ptr %9) #13
  br label %79

79:                                               ; preds = %78, %76
  call void @llvm.lifetime.end.p0(i64 1, ptr %8) #13
  call void @llvm.lifetime.end.p0(i64 4, ptr %7) #13
  call void @llvm.lifetime.end.p0(i64 4, ptr %6) #13
  call void @llvm.lifetime.end.p0(i64 12, ptr %5) #13
  br label %80

80:                                               ; preds = %79, %23
  ret void

81:                                               ; preds = %70, %68
  %82 = landingpad { ptr, i32 }
          cleanup
  %83 = extractvalue { ptr, i32 } %82, 0
  store ptr %83, ptr %13, align 8
  %84 = extractvalue { ptr, i32 } %82, 1
  store i32 %84, ptr %14, align 4
  %85 = load i1, ptr %12, align 1
  br i1 %85, label %86, label %87

86:                                               ; preds = %81
  call void @_ZN6google15ErrnoLogMessageD1Ev(ptr noundef nonnull align 8 dereferenceable(16) %9) #13
  br label %87

87:                                               ; preds = %86, %81
  %88 = load i1, ptr %10, align 1
  br i1 %88, label %89, label %90

89:                                               ; preds = %87
  call void @llvm.lifetime.end.p0(i64 16, ptr %9) #13
  br label %90

90:                                               ; preds = %89, %87
  call void @llvm.lifetime.end.p0(i64 1, ptr %8) #13
  call void @llvm.lifetime.end.p0(i64 4, ptr %7) #13
  call void @llvm.lifetime.end.p0(i64 4, ptr %6) #13
  call void @llvm.lifetime.end.p0(i64 12, ptr %5) #13
  br label %91

91:                                               ; preds = %90
  %92 = load ptr, ptr %13, align 8
  %93 = load i32, ptr %14, align 4
  %94 = insertvalue { ptr, i32 } poison, ptr %92, 0
  %95 = insertvalue { ptr, i32 } %94, i32 %93, 1
  resume { ptr, i32 } %95
}