; Function Attrs: mustprogress uwtable
define internal void @_ZN5folly6detail12_GLOBAL__N_120EventBasePollerEpoll8addEventEPNS1_19EventBasePollerImpl5EventE(ptr noundef nonnull readonly align 8 captures(none) dereferenceable(288) %0, ptr noundef %1) unnamed_addr #2 align 2 personality ptr @__gxx_personality_v0 {
  %3 = alloca %struct.epoll_event, align 4
  %4 = alloca %"class.google::ErrnoLogMessage", align 8
  %5 = alloca { i64, i64 }, align 8
  %6 = getelementptr i8, ptr %1, i64 16
  %.val = load ptr, ptr %6, align 8, !tbaa !89
  %7 = icmp eq ptr %.val, null
  br i1 %7, label %8, label %12

8:                                                ; preds = %2
  %9 = getelementptr inbounds nuw i8, ptr %1, i64 28
  %10 = load i8, ptr %9, align 4, !tbaa !91, !range !44, !noundef !45
  %11 = trunc nuw i8 %10 to i1
  br i1 %11, label %30, label %18

12:                                               ; preds = %2
  call void @llvm.lifetime.start.p0(i64 12, ptr nonnull %3) #26
  %13 = getelementptr inbounds nuw i8, ptr %3, i64 4
  store ptr %1, ptr %13, align 4, !tbaa !17
  store i32 1073741825, ptr %3, align 4, !tbaa !143
  %14 = getelementptr inbounds nuw i8, ptr %1, i64 28
  %15 = load i8, ptr %14, align 4, !tbaa !91, !range !44, !noundef !45
  %16 = trunc nuw i8 %15 to i1
  br i1 %16, label %20, label %17, !prof !33

17:                                               ; preds = %12
  store i8 1, ptr %14, align 4, !tbaa !91
  br label %20

18:                                               ; preds = %8
  call void @llvm.lifetime.start.p0(i64 12, ptr nonnull %3) #26
  %19 = getelementptr inbounds nuw i8, ptr %3, i64 4
  store ptr %1, ptr %19, align 4, !tbaa !17
  store i32 -2147483647, ptr %3, align 4, !tbaa !143
  store i8 1, ptr %9, align 4, !tbaa !91
  br label %20

20:                                               ; preds = %12, %17, %18
  %.0 = phi i32 [ 1, %18 ], [ 1, %17 ], [ 3, %12 ]
  %21 = getelementptr inbounds nuw i8, ptr %0, i64 256
  %22 = load i32, ptr %21, align 8, !tbaa !105
  %23 = getelementptr inbounds nuw i8, ptr %1, i64 24
  %24 = load i32, ptr %23, align 8, !tbaa !90
  %25 = call i32 @epoll_ctl(i32 noundef %22, i32 noundef %.0, i32 noundef %24, ptr noundef nonnull %3) #26
  %.not.not = icmp eq i32 %25, 0
  br i1 %.not.not, label %.critedge18, label %26, !prof !33

26:                                               ; preds = %20
  call void @llvm.lifetime.start.p0(i64 16, ptr nonnull %4) #26
  call void @llvm.lifetime.start.p0(i64 16, ptr nonnull %5) #26
  store i64 ptrtoint (ptr @_ZN6google10LogMessage9SendToLogEv to i64), ptr %5, align 8, !tbaa !17
  %.fca.1.gep = getelementptr inbounds nuw i8, ptr %5, i64 8
  store i64 0, ptr %.fca.1.gep, align 8, !tbaa !17
  call void @_ZN6google15ErrnoLogMessageC1EPKciiiMNS_10LogMessageEFvvE(ptr noundef nonnull align 8 dereferenceable(16) %4, ptr noundef nonnull @.str.5, i32 noundef 424, i32 noundef 3, i32 noundef 0, ptr noundef nonnull byval({ i64, i64 }) align 8 %5)
  call void @llvm.lifetime.end.p0(i64 16, ptr nonnull %5) #26
  %27 = invoke noundef nonnull align 8 dereferenceable(8) ptr @_ZN6google10LogMessage6streamEv(ptr noundef nonnull align 8 dereferenceable(16) %4)
          to label %28 unwind label %31

28:                                               ; preds = %26
  %29 = invoke noundef nonnull align 8 dereferenceable(8) ptr @_ZSt16__ostream_insertIcSt11char_traitsIcEERSt13basic_ostreamIT_T0_ES6_PKS3_l(ptr noundef nonnull align 8 dereferenceable(8) %27, ptr noundef nonnull @.str.42, i64 noundef 23)
          to label %.critedge unwind label %31

.critedge:                                        ; preds = %28
  call void @_ZN6google15ErrnoLogMessageD1Ev(ptr noundef nonnull align 8 dereferenceable(16) %4) #26
  call void @llvm.lifetime.end.p0(i64 16, ptr nonnull %4) #26
  br label %.critedge18

.critedge18:                                      ; preds = %20, %.critedge
  call void @llvm.lifetime.end.p0(i64 12, ptr nonnull %3) #26
  br label %30

30:                                               ; preds = %8, %.critedge18
  ret void

31:                                               ; preds = %28, %26
  %32 = landingpad { ptr, i32 }
          cleanup
  call void @_ZN6google15ErrnoLogMessageD1Ev(ptr noundef nonnull align 8 dereferenceable(16) %4) #26
  call void @llvm.lifetime.end.p0(i64 16, ptr nonnull %4) #26
  call void @llvm.lifetime.end.p0(i64 12, ptr nonnull %3) #26
  resume { ptr, i32 } %32
}